Certificate Revocation List (CRL):
        Version 2 (0x1)
    Signature Algorithm: sha256WithRSAEncryption
        Issuer: /CN=localhost/OU=Integrations/O=MongoDB/L=New York City/ST=New York/C=US
        Last Update: Oct  5 18:27:51 2015 GMT
        Next Update: Nov 23 18:27:51 2097 GMT
        CRL extensions:
            X509v3 CRL Number: 
                4096
Revoked Certificates:
    Serial Number: 070971
        Revocation Date: Oct  5 18:27:51 2015 GMT
    Signature Algorithm: sha256WithRSAEncryption
         1e:36:89:4a:93:3b:42:24:ff:3b:f2:5c:f7:9d:c8:05:8a:1c:
         6a:b1:24:88:f0:7d:2d:5d:2f:7a:00:db:95:e0:da:cf:6a:3c:
         7f:2d:27:c9:80:1d:63:69:c8:c8:ed:f8:96:22:bb:73:21:ae:
         90:f3:84:bd:3e:01:e8:1c:44:f6:e3:fa:9e:25:02:88:80:ec:
         62:19:cb:e0:9a:5e:dd:3e:32:bc:8f:ef:96:3b:cb:40:cc:04:
         5d:1c:d9:c0:4b:8e:db:d4:46:7c:65:e8:1c:83:3f:c3:a0:a1:
         dc:85:9b:42:46:53:02:bb:a5:97:63:91:7f:f4:84:7d:a4:4d:
         86:8e:12:e6:f9:58:04:ab:6c:ff:af:c1:fa:32:1f:31:c9:dc:
         1e:c7:2b:64:9d:e6:cc:fb:14:69:77:e5:22:2e:08:1a:53:c3:
         ae:d5:10:b7:a5:2f:d2:be:03:39:ac:92:e5:88:fb:b7:21:03:
         a7:b6:4c:a7:84:40:1f:54:48:13:41:f0:ae:ab:77:c5:84:2c:
         53:3d:00:c4:0d:b0:8a:59:b0:b2:ef:a1:c4:71:56:26:52:8d:
         f6:5a:05:d9:a8:19:89:6a:25:d7:f5:59:26:c5:b7:be:78:fb:
         04:1e:2f:eb:e7:80:31:dd:5f:fa:6d:a8:2a:aa:01:17:68:7f:
         23:b2:67:2c
-----BEGIN X509 CRL-----
MIIB6TCB0gIBATANBgkqhkiG9w0BAQsFADB1MRIwEAYDVQQDEwlsb2NhbGhvc3Qx
FTATBgNVBAsTDEludGVncmF0aW9uczEQMA4GA1UEChMHTW9uZ29EQjEWMBQGA1UE
BxMNTmV3IFlvcmsgQ2l0eTERMA8GA1UECBMITmV3IFlvcmsxCzAJBgNVBAYTAlVT
Fw0xNTEwMDUxODI3NTFaGA8yMDk3MTEyMzE4Mjc1MVowFjAUAgMHCXEXDTE1MTAw
NTE4Mjc1MVqgDzANMAsGA1UdFAQEAgIQADANBgkqhkiG9w0BAQsFAAOCAQEAHjaJ
SpM7QiT/O/Jc953IBYocarEkiPB9LV0vegDbleDaz2o8fy0nyYAdY2nIyO34liK7
cyGukPOEvT4B6BxE9uP6niUCiIDsYhnL4Jpe3T4yvI/vljvLQMwEXRzZwEuO29RG
fGXoHIM/w6Ch3IWbQkZTArull2ORf/SEfaRNho4S5vlYBKts/6/B+jIfMcncHscr
ZJ3mzPsUaXflIi4IGlPDrtUQt6Uv0r4DOayS5Yj7tyEDp7ZMp4RAH1RIE0Hwrqt3
xYQsUz0AxA2wilmwsu+hxHFWJlKN9loF2agZiWol1/VZJsW3vnj7BB4v6+eAMd1f
+m2oKqoBF2h/I7JnLA==
-----END X509 CRL-----